(dp0
S'd.'
p1
(dp2
S''
p3
ccopy_reg
_reconstructor
p4
(c_PYBASH.alias
Alias
p5
c__builtin__
object
p6
Ntp7
Rp8
(dp9
S'name'
p10
S'd.'
p11
sS'args'
p12
(lp13
g4
(c_PYBASH.alias
Argument
p14
g6
Ntp15
Rp16
(dp17
S'required'
p18
I00
sS'type'
p19
S'string'
p20
sg10
S'directory'
p21
sS'description'
p22
g3
sbasS'value'
p23
S'cd_ls'
p24
sS'nrequired'
p25
I0
sS'module_name'
p26
g3
sS'unique'
p27
I01
sS'desc'
p28
NsbssS'md'
p29
(dp30
g3
g4
(g5
g6
Ntp31
Rp32
(dp33
g10
S'md'
p34
sg12
(lp35
g4
(g14
g6
Ntp36
Rp37
(dp38
g18
I01
sg19
S'string'
p39
sg10
S'directory'
p40
sg22
g3
sbasg23
S'mkdir_cd'
p41
sg25
I1
sg26
g3
sg27
I01
sg28
NsbssS'pb_source'
p42
(dp43
g3
g4
(g5
g6
Ntp44
Rp45
(dp46
g10
S'pb_source'
p47
sg12
(lp48
g4
(g14
g6
Ntp49
Rp50
(dp51
g18
I01
sg19
S'string'
p52
sg10
S'filepath'
p53
sg22
S'path to script'
p54
sbasg23
S'pybash_source'
p55
sg25
I1
sg26
g3
sg27
I01
sg28
NsbssS'jot'
p56
(dp57
S'notes'
p58
g4
(g5
g6
Ntp59
Rp60
(dp61
g10
S'jot'
p62
sg12
(lp63
g4
(g14
g6
Ntp64
Rp65
(dp66
g18
I01
sg19
S'string'
p67
sg10
S'note name'
p68
sg22
g3
sbag4
(g14
g6
Ntp69
Rp70
(dp71
g18
I01
sg19
g67
sg10
S'text'
p72
sg22
g3
sbasg23
S'add_note_item'
p73
sg25
I2
sg26
S'notes'
p74
sg27
I01
sg28
NsbssS'del_note'
p75
(dp76
S'notes'
p77
g4
(g5
g6
Ntp78
Rp79
(dp80
g10
S'del_note'
p81
sg12
(lp82
g4
(g14
g6
Ntp83
Rp84
(dp85
g18
I00
sg19
S'string'
p86
sg10
S'note name'
p87
sg22
g3
sbag4
(g14
g6
Ntp88
Rp89
(dp90
g18
I00
sg19
S'int'
p91
sg10
S'idx'
p92
sg22
g3
sbasg23
S'delete_note'
p93
sg25
I0
sg26
S'notes'
p94
sg27
I01
sg28
NsbssS'pbr'
p95
(dp96
g3
g4
(g5
g6
Ntp97
Rp98
(dp99
g10
S'pbr'
p100
sg12
(lp101
sg23
S'pybash_reload'
p102
sg25
I0
sg26
g3
sg27
I01
sg28
NsbssS'notes'
p103
(dp104
g103
g4
(g5
g6
Ntp105
Rp106
(dp107
g10
S'notes'
p108
sg12
(lp109
g4
(g14
g6
Ntp110
Rp111
(dp112
g18
I00
sg19
S'string'
p113
sg10
S'note name'
p114
sg22
g3
sbag4
(g14
g6
Ntp115
Rp116
(dp117
g18
I00
sg19
S'int'
p118
sg10
S'idx'
p119
sg22
g3
sbag4
(g14
g6
Ntp120
Rp121
(dp122
g18
I00
sg19
g113
sg10
S'bvar'
p123
sg22
g3
sbasg23
S'read_note'
p124
sg25
I0
sg26
g108
sg27
I01
sg28
NsbssS'z'
p125
(dp126
S'cmd'
p127
g4
(g5
g6
Ntp128
Rp129
(dp130
g10
S'z'
p131
sg12
(lp132
g4
(g14
g6
Ntp133
Rp134
(dp135
g18
I00
sg19
S'string'
p136
sg10
S'bvar name'
p137
sg22
g3
sbag4
(g14
g6
Ntp138
Rp139
(dp140
g18
I00
sg19
g136
sg10
S'history args'
p141
sg22
g3
sbasg23
S'get_prev_cmd'
p142
sg25
I0
sg26
S'cmd'
p143
sg27
I01
sg28
NsbssS'new_module'
p144
(dp145
S'_PYBASH'
p146
g4
(g5
g6
Ntp147
Rp148
(dp149
g10
S'new_module'
p150
sg12
(lp151
g4
(g14
g6
Ntp152
Rp153
(dp154
g18
I01
sg19
S'string'
p155
sg10
S'module_name'
p156
sg22
g3
sbasg23
S'pybash_new_module'
p157
sg25
I1
sg26
S'_PYBASH'
p158
sg27
I01
sg28
S'Creates a new pybash module with some starter files'
p159
sbssS'pb_unalias'
p160
(dp161
S'_PYBASH'
p162
g4
(g5
g6
Ntp163
Rp164
(dp165
g10
S'pb_unalias'
p166
sg12
(lp167
g4
(g14
g6
Ntp168
Rp169
(dp170
g18
I01
sg19
S'string'
p171
sg10
S'name'
p172
sg22
g3
sbag4
(g14
g6
Ntp173
Rp174
(dp175
g18
I01
sg19
g171
sg10
S'module name'
p176
sg22
g3
sbasg23
S'pb_remove_alias'
p177
sg25
I2
sg26
S'_PYBASH'
p178
sg27
I01
sg28
NsbssS'pb_install'
p179
(dp180
g3
g4
(g5
g6
Ntp181
Rp182
(dp183
g10
S'pb_install'
p184
sg12
(lp185
g4
(g14
g6
Ntp186
Rp187
(dp188
g18
I01
sg19
S'string'
p189
sg10
S'module name'
p190
sg22
g3
sbasg23
S'pybash_install_module'
p191
sg25
I1
sg26
g3
sg27
I00
sg28
S'Installs a pybash module'
p192
sbsS'cmd'
p193
g4
(g5
g6
Ntp194
Rp195
(dp196
g10
S'pb_install'
p197
sg12
(lp198
g4
(g14
g6
Ntp199
Rp200
(dp201
g18
I01
sg19
S'string'
p202
sg10
S'module name'
p203
sg22
g3
sbasg23
S'pybash_install_module'
p204
sg25
I1
sg26
S'cmd'
p205
sg27
I00
sg28
S'Installs a pybash module'
p206
sbsS'vars'
p207
g4
(g5
g6
Ntp208
Rp209
(dp210
g10
S'pb_install'
p211
sg12
(lp212
g4
(g14
g6
Ntp213
Rp214
(dp215
g18
I01
sg19
S'string'
p216
sg10
S'module name'
p217
sg22
g3
sbasg23
S'pybash_install_module'
p218
sg25
I1
sg26
g207
sg27
I00
sg28
S'Installs a pybash module'
p219
sbssS'zz'
p220
(dp221
S'cmd'
p222
g4
(g5
g6
Ntp223
Rp224
(dp225
g10
S'zz'
p226
sg12
(lp227
g4
(g14
g6
Ntp228
Rp229
(dp230
g18
I00
sg19
S'string'
p231
sg10
S'bvar name'
p232
sg22
g3
sbasg23
S'exec_prev_cmd'
p233
sg25
I0
sg26
S'cmd'
p234
sg27
I01
sg28
NsbssS'v'
p235
(dp236
S'vars'
p237
g4
(g5
g6
Ntp238
Rp239
(dp240
g10
S'v'
p241
sg12
(lp242
g4
(g14
g6
Ntp243
Rp244
(dp245
g18
I00
sg19
S'string'
p246
sg10
S'var name'
p247
sg22
g3
sbag4
(g14
g6
Ntp248
Rp249
(dp250
g18
I00
sg19
g246
sg10
S'bvar name'
p251
sg22
g3
sbasg23
S'load_var'
p252
sg25
I0
sg26
S'vars'
p253
sg27
I01
sg28
NsbssS'man'
p254
(dp255
g3
g4
(g5
g6
Ntp256
Rp257
(dp258
g10
S'man'
p259
sg12
(lp260
g4
(g14
g6
Ntp261
Rp262
(dp263
g18
I01
sg19
S'string'
p264
sg10
S'name'
p265
sg22
g3
sbag4
(g14
g6
Ntp266
Rp267
(dp268
g18
I00
sg19
g264
sg10
S'module name'
p269
sg22
g3
sbasg23
S'pybash_man'
p270
sg25
I1
sg26
g3
sg27
I01
sg28
NsbssS'x'
p271
(dp272
S'vars'
p273
g4
(g5
g6
Ntp274
Rp275
(dp276
g10
S'x'
p277
sg12
(lp278
g4
(g14
g6
Ntp279
Rp280
(dp281
g18
I01
sg19
S'string'
p282
sg10
S'var name'
p283
sg22
g3
sbag4
(g14
g6
Ntp284
Rp285
(dp286
g18
I01
sg19
S'any'
p287
sg10
S'value'
p288
sg22
g3
sbasg23
S'save_var'
p289
sg25
I2
sg26
S'vars'
p290
sg27
I01
sg28
NsbssS'pb_alias'
p291
(dp292
g3
g4
(g5
g6
Ntp293
Rp294
(dp295
g10
S'pb_alias'
p296
sg12
(lp297
g4
(g14
g6
Ntp298
Rp299
(dp300
g18
I01
sg19
S'string'
p301
sg10
S'name'
p302
sg22
S'Name of alias'
p303
sbag4
(g14
g6
Ntp304
Rp305
(dp306
g18
I01
sg19
g301
sg10
S'value'
p307
sg22
S'Name of function that is called'
p308
sbasg23
S'pybash_alias'
p309
sg25
I2
sg26
g3
sg27
I01
sg28
NsbssS'notes_del'
p310
(dp311
S'notes'
p312
g4
(g5
g6
Ntp313
Rp314
(dp315
g10
S'notes_del'
p316
sg12
(lp317
g4
(g14
g6
Ntp318
Rp319
(dp320
g18
I00
sg19
S'string'
p321
sg10
S'note name'
p322
sg22
g3
sbag4
(g14
g6
Ntp323
Rp324
(dp325
g18
I00
sg19
S'int'
p326
sg10
S'idx'
p327
sg22
g3
sbasg23
S'delete_note'
p328
sg25
I0
sg26
S'notes'
p329
sg27
I01
sg28
NsbssS'h.'
p330
(dp331
g3
g4
(g5
g6
Ntp332
Rp333
(dp334
g10
S'h.'
p335
sg12
(lp336
g4
(g14
g6
Ntp337
Rp338
(dp339
g18
I01
sg19
S'string'
p340
sg10
S'bvar name'
p341
sg22
g3
sbasg23
S'echo_var'
p342
sg25
I1
sg26
g3
sg27
I01
sg28
NsbssS'q.'
p343
(dp344
S'vars'
p345
g4
(g5
g6
Ntp346
Rp347
(dp348
g10
S'q.'
p349
sg12
(lp350
g4
(g14
g6
Ntp351
Rp352
(dp353
g18
I01
sg19
S'string'
p354
sg10
S'var name'
p355
sg22
g3
sbag4
(g14
g6
Ntp356
Rp357
(dp358
g18
I00
sg19
S'flag'
p359
sg10
S'-a'
p360
sg22
S'switch to async editor'
p361
sbasg23
S'edit_var'
p362
sg25
I1
sg26
S'vars'
p363
sg27
I01
sg28
S'edits a permanent variable'
p364
sbss.